; Function Attrs: mustprogress uwtable
define noundef i32 @_ZN7lodepng6encodeERKNSt7__cxx1112basic_stringIcSt11char_traitsIcESaIcEEERKSt6vectorIhSaIhEEjj16LodePNGColorTypej(ptr noundef nonnull readonly align 8 captures(none) dereferenceable(32) %0, ptr noundef nonnull readonly align 8 captures(none) dereferenceable(24) %1, i32 noundef %2, i32 noundef %3, i32 noundef %4, i32 noundef %5) local_unnamed_addr #5 {
  %7 = icmp ult i32 %4, 7
  br i1 %7, label %switch.lookup, label %_ZL24lodepng_get_raw_size_lctjj16LodePNGColorTypej.exit

switch.lookup:                                    ; preds = %6
  %8 = zext nneg i32 %4 to i64
  %switch.gep = getelementptr inbounds nuw [7 x i32], ptr @switch.table._ZL6filterPhPKhjjPK16LodePNGColorModePK22LodePNGEncoderSettings, i64 0, i64 %8
  %switch.load = load i32, ptr %switch.gep, align 4
  br label %_ZL24lodepng_get_raw_size_lctjj16LodePNGColorTypej.exit

_ZL24lodepng_get_raw_size_lctjj16LodePNGColorTypej.exit: ; preds = %6, %switch.lookup
  %.0.i.i.i = phi i32 [ %switch.load, %switch.lookup ], [ 0, %6 ]
  %9 = mul i32 %.0.i.i.i, %5
  %10 = zext i32 %9 to i64
  %11 = zext i32 %2 to i64
  %12 = zext i32 %3 to i64
  %13 = mul nuw i64 %12, %11
  %14 = lshr i64 %13, 3
  %15 = mul i64 %14, %10
  %16 = and i64 %13, 7
  %17 = mul nuw nsw i64 %16, %10
  %18 = add nuw nsw i64 %17, 7
  %19 = lshr i64 %18, 3
  %20 = add i64 %19, %15
  %21 = getelementptr inbounds nuw i8, ptr %1, i64 8
  %22 = load ptr, ptr %21, align 8, !tbaa !772
  %23 = load ptr, ptr %1, align 8, !tbaa !770
  %24 = ptrtoint ptr %22 to i64
  %25 = ptrtoint ptr %23 to i64
  %26 = sub i64 %24, %25
  %27 = icmp ugt i64 %20, %26
  br i1 %27, label %31, label %28

28:                                               ; preds = %_ZL24lodepng_get_raw_size_lctjj16LodePNGColorTypej.exit
  %29 = icmp eq ptr %23, %22
  %spec.select = select i1 %29, ptr null, ptr %23
  %30 = tail call noundef i32 @_ZN7lodepng6encodeERKNSt7__cxx1112basic_stringIcSt11char_traitsIcESaIcEEEPKhjj16LodePNGColorTypej(ptr noundef nonnull align 8 dereferenceable(32) %0, ptr noundef %spec.select, i32 noundef %2, i32 noundef %3, i32 noundef %4, i32 noundef %5)
  br label %31

31:                                               ; preds = %_ZL24lodepng_get_raw_size_lctjj16LodePNGColorTypej.exit, %28
  %.0 = phi i32 [ %30, %28 ], [ 84, %_ZL24lodepng_get_raw_size_lctjj16LodePNGColorTypej.exit ]
  ret i32 %.0
}